target datalayout = "e-m:e-p270:32:32-p271:32:32-p272:64:64-i64:64-i128:128-f80:128-n8:16:32:64-S128"
target triple = "x86_64-pc-linux-gnu"

%struct.AVFormatContext = type { ptr, ptr, ptr, ptr, ptr, i32, i32, ptr, i32, ptr, i32, ptr, ptr, i64, i64, i64, i32, i32, i32, i64, i64, ptr, i32, i32, ptr, i32, i32, i32, i32, ptr, i64, i32, i32, %struct.AVIOInterruptCB, i32, i32, i32, i32, i64, i32, i32, i32, i32, i32, i32, i32, i32, i32, i32, i32, i32, i64, i32, i32, i32, i32, i32, ptr, ptr, ptr, ptr, i32, ptr, ptr, ptr, ptr, i32, ptr, ptr, i64, ptr, ptr, ptr, i64 }
%struct.AVIOInterruptCB = type { ptr, ptr }
%struct.ASFContext = type { i32, i32, i32, i64, i64, i32, i64, i32, i32, i32, i64, i64, i64, i64, i64, i64, i32, [128 x ptr], [128 x %struct.ASFStreamData], i32, i32, i64, i64, i8, i32, i64, i32, i32, i64, i32, i16, i64, i32, i32 }
%struct.ASFStreamData = type { [32 x i8], ptr, %struct.AVRational }
%struct.AVRational = type { i32, i32 }

@asf_read_content_desc.titles = internal constant [5 x ptr] [ptr @.str.52, ptr @.str.53, ptr @.str.54, ptr @.str.55, ptr @.str.56], align 16
@.str.57 = private unnamed_addr constant [21 x i8] c"av_dict_set failed.\0A\00", align 1

; Function Attrs: alwaysinline nounwind uwtable
define internal i64 @avio_tell(ptr noundef %0) #1 {
  %2 = alloca ptr, align 8
  store ptr %0, ptr %2, align 8, !tbaa !33
  %3 = load ptr, ptr %2, align 8, !tbaa !33
  %4 = call i64 @avio_seek(ptr noundef %3, i64 noundef 0, i32 noundef 1)
  ret i64 %4
}

; Function Attrs: nounwind uwtable
define internal void @align_position(ptr noundef %0, i64 noundef %1, i64 noundef %2) #0 {
  %4 = alloca ptr, align 8
  %5 = alloca i64, align 8
  %6 = alloca i64, align 8
  store ptr %0, ptr %4, align 8, !tbaa !33
  store i64 %1, ptr %5, align 8, !tbaa !47
  store i64 %2, ptr %6, align 8, !tbaa !47
  %7 = load i64, ptr %6, align 8, !tbaa !47
  %8 = load i64, ptr %5, align 8, !tbaa !47
  %9 = sub nsw i64 9223372036854775807, %8
  %10 = icmp ult i64 %7, %9
  br i1 %10, label %11, label %24

11:                                               ; preds = %3
  %12 = load ptr, ptr %4, align 8, !tbaa !33
  %13 = call i64 @avio_tell(ptr noundef %12)
  %14 = load i64, ptr %5, align 8, !tbaa !47
  %15 = load i64, ptr %6, align 8, !tbaa !47
  %16 = add i64 %14, %15
  %17 = icmp ne i64 %13, %16
  br i1 %17, label %18, label %24

18:                                               ; preds = %11
  %19 = load ptr, ptr %4, align 8, !tbaa !33
  %20 = load i64, ptr %5, align 8, !tbaa !47
  %21 = load i64, ptr %6, align 8, !tbaa !47
  %22 = add i64 %20, %21
  %23 = call i64 @avio_seek(ptr noundef %19, i64 noundef %22, i32 noundef 0)
  br label %24

24:                                               ; preds = %18, %11, %3
  ret void
}

; Function Attrs: nounwind uwtable
define internal i32 @asf_read_metadata(ptr noundef %0, ptr noundef %1, i16 noundef zeroext %2, ptr noundef %3, i16 noundef zeroext %4) #0 {
  %6 = alloca ptr, align 8
  %7 = alloca ptr, align 8
  %8 = alloca i16, align 2
  %9 = alloca ptr, align 8
  %10 = alloca i16, align 2
  %11 = alloca ptr, align 8
  store ptr %0, ptr %6, align 8, !tbaa !13
  store ptr %1, ptr %7, align 8, !tbaa !59
  store i16 %2, ptr %8, align 2, !tbaa !132
  store ptr %3, ptr %9, align 8, !tbaa !59
  store i16 %4, ptr %10, align 2, !tbaa !132
  call void @llvm.lifetime.start.p0(i64 8, ptr %11) #10
  %12 = load ptr, ptr %6, align 8, !tbaa !13
  %13 = getelementptr inbounds nuw %struct.AVFormatContext, ptr %12, i32 0, i32 4
  %14 = load ptr, ptr %13, align 8, !tbaa !32
  store ptr %14, ptr %11, align 8, !tbaa !33
  %15 = load ptr, ptr %11, align 8, !tbaa !33
  %16 = load i16, ptr %8, align 2, !tbaa !132
  %17 = zext i16 %16 to i32
  %18 = load ptr, ptr %9, align 8, !tbaa !59
  %19 = load i16, ptr %10, align 2, !tbaa !132
  %20 = zext i16 %19 to i32
  %21 = call i32 @avio_get_str16le(ptr noundef %15, i32 noundef %17, ptr noundef %18, i32 noundef %20)
  %22 = load ptr, ptr %9, align 8, !tbaa !59
  %23 = getelementptr inbounds i8, ptr %22, i64 0
  %24 = load i8, ptr %23, align 1, !tbaa !131
  %25 = icmp ne i8 %24, 0
  br i1 %25, label %26, label %36

26:                                               ; preds = %5
  %27 = load ptr, ptr %6, align 8, !tbaa !13
  %28 = getelementptr inbounds nuw %struct.AVFormatContext, ptr %27, i32 0, i32 29
  %29 = load ptr, ptr %7, align 8, !tbaa !59
  %30 = load ptr, ptr %9, align 8, !tbaa !59
  %31 = call i32 @av_dict_set(ptr noundef %28, ptr noundef %29, ptr noundef %30, i32 noundef 0)
  %32 = icmp slt i32 %31, 0
  br i1 %32, label %33, label %35

33:                                               ; preds = %26
  %34 = load ptr, ptr %6, align 8, !tbaa !13
  call void (ptr, i32, ptr, ...) @av_log(ptr noundef %34, i32 noundef 24, ptr noundef @.str.57)
  br label %35

35:                                               ; preds = %33, %26
  br label %36

36:                                               ; preds = %35, %5
  call void @llvm.lifetime.end.p0(i64 8, ptr %11) #10
  ret i32 0
}

; Function Attrs: nounwind uwtable
define internal i32 @asf_read_content_desc(ptr noundef %0, ptr noundef %1) #0 {
  %3 = alloca i32, align 4
  %4 = alloca ptr, align 8
  %5 = alloca ptr, align 8
  %6 = alloca ptr, align 8
  %7 = alloca ptr, align 8
  %8 = alloca i32, align 4
  %9 = alloca [5 x i16], align 2
  %10 = alloca [5 x i16], align 2
  %11 = alloca ptr, align 8
  %12 = alloca i64, align 8
  %13 = alloca i32, align 4
  store ptr %0, ptr %4, align 8, !tbaa !13
  store ptr %1, ptr %5, align 8, !tbaa !34
  call void @llvm.lifetime.start.p0(i64 8, ptr %6) #10
  %14 = load ptr, ptr %4, align 8, !tbaa !13
  %15 = getelementptr inbounds nuw %struct.AVFormatContext, ptr %14, i32 0, i32 3
  %16 = load ptr, ptr %15, align 8, !tbaa !15
  store ptr %16, ptr %6, align 8, !tbaa !30
  call void @llvm.lifetime.start.p0(i64 8, ptr %7) #10
  %17 = load ptr, ptr %4, align 8, !tbaa !13
  %18 = getelementptr inbounds nuw %struct.AVFormatContext, ptr %17, i32 0, i32 4
  %19 = load ptr, ptr %18, align 8, !tbaa !32
  store ptr %19, ptr %7, align 8, !tbaa !33
  call void @llvm.lifetime.start.p0(i64 4, ptr %8) #10
  call void @llvm.lifetime.start.p0(i64 10, ptr %9) #10
  call void @llvm.lifetime.start.p0(i64 10, ptr %10) #10
  call void @llvm.memset.p0.i64(ptr align 2 %10, i8 0, i64 10, i1 false)
  call void @llvm.lifetime.start.p0(i64 8, ptr %11) #10
  call void @llvm.lifetime.start.p0(i64 8, ptr %12) #10
  %20 = load ptr, ptr %7, align 8, !tbaa !33
  %21 = call i64 @avio_rl64(ptr noundef %20)
  store i64 %21, ptr %12, align 8, !tbaa !47
  store i32 0, ptr %8, align 4, !tbaa !42
  br label %22

22:                                               ; preds = %43, %2
  %23 = load i32, ptr %8, align 4, !tbaa !42
  %24 = icmp slt i32 %23, 5
  br i1 %24, label %25, label %46

25:                                               ; preds = %22
  %26 = load ptr, ptr %7, align 8, !tbaa !33
  %27 = call i32 @avio_rl16(ptr noundef %26)
  %28 = trunc i32 %27 to i16
  %29 = load i32, ptr %8, align 4, !tbaa !42
  %30 = sext i32 %29 to i64
  %31 = getelementptr inbounds [5 x i16], ptr %9, i64 0, i64 %30
  store i16 %28, ptr %31, align 2, !tbaa !132
  %32 = load i32, ptr %8, align 4, !tbaa !42
  %33 = sext i32 %32 to i64
  %34 = getelementptr inbounds [5 x i16], ptr %9, i64 0, i64 %33
  %35 = load i16, ptr %34, align 2, !tbaa !132
  %36 = zext i16 %35 to i32
  %37 = mul nsw i32 2, %36
  %38 = add nsw i32 %37, 1
  %39 = trunc i32 %38 to i16
  %40 = load i32, ptr %8, align 4, !tbaa !42
  %41 = sext i32 %40 to i64
  %42 = getelementptr inbounds [5 x i16], ptr %10, i64 0, i64 %41
  store i16 %39, ptr %42, align 2, !tbaa !132
  br label %43

43:                                               ; preds = %25
  %44 = load i32, ptr %8, align 4, !tbaa !42
  %45 = add nsw i32 %44, 1
  store i32 %45, ptr %8, align 4, !tbaa !42
  br label %22, !llvm.loop !143

46:                                               ; preds = %22
  store i32 0, ptr %8, align 4, !tbaa !42
  br label %47

47:                                               ; preds = %76, %46
  %48 = load i32, ptr %8, align 4, !tbaa !42
  %49 = icmp slt i32 %48, 5
  br i1 %49, label %50, label %79

50:                                               ; preds = %47
  %51 = load i32, ptr %8, align 4, !tbaa !42
  %52 = sext i32 %51 to i64
  %53 = getelementptr inbounds [5 x i16], ptr %10, i64 0, i64 %52
  %54 = load i16, ptr %53, align 2, !tbaa !132
  %55 = zext i16 %54 to i64
  %56 = call noalias ptr @av_malloc(i64 noundef %55)
  store ptr %56, ptr %11, align 8, !tbaa !59
  %57 = load ptr, ptr %11, align 8, !tbaa !59
  %58 = icmp ne ptr %57, null
  br i1 %58, label %60, label %59

59:                                               ; preds = %50
  store i32 -12, ptr %3, align 4
  store i32 1, ptr %13, align 4
  br label %85

60:                                               ; preds = %50
  %61 = load ptr, ptr %4, align 8, !tbaa !13
  %62 = load i32, ptr %8, align 4, !tbaa !42
  %63 = sext i32 %62 to i64
  %64 = getelementptr inbounds [5 x ptr], ptr @asf_read_content_desc.titles, i64 0, i64 %63
  %65 = load ptr, ptr %64, align 8, !tbaa !59
  %66 = load i32, ptr %8, align 4, !tbaa !42
  %67 = sext i32 %66 to i64
  %68 = getelementptr inbounds [5 x i16], ptr %9, i64 0, i64 %67
  %69 = load i16, ptr %68, align 2, !tbaa !132
  %70 = load ptr, ptr %11, align 8, !tbaa !59
  %71 = load i32, ptr %8, align 4, !tbaa !42
  %72 = sext i32 %71 to i64
  %73 = getelementptr inbounds [5 x i16], ptr %10, i64 0, i64 %72
  %74 = load i16, ptr %73, align 2, !tbaa !132
  %75 = call i32 @asf_read_metadata(ptr noundef %61, ptr noundef %65, i16 noundef zeroext %69, ptr noundef %70, i16 noundef zeroext %74)
  call void @av_freep(ptr noundef %11)
  br label %76

76:                                               ; preds = %60
  %77 = load i32, ptr %8, align 4, !tbaa !42
  %78 = add nsw i32 %77, 1
  store i32 %78, ptr %8, align 4, !tbaa !42
  br label %47, !llvm.loop !144

79:                                               ; preds = %47
  %80 = load ptr, ptr %7, align 8, !tbaa !33
  %81 = load ptr, ptr %6, align 8, !tbaa !30
  %82 = getelementptr inbounds nuw %struct.ASFContext, ptr %81, i32 0, i32 12
  %83 = load i64, ptr %82, align 8, !tbaa !41
  %84 = load i64, ptr %12, align 8, !tbaa !47
  call void @align_position(ptr noundef %80, i64 noundef %83, i64 noundef %84)
  store i32 0, ptr %3, align 4
  store i32 1, ptr %13, align 4
  br label %85

85:                                               ; preds = %79, %59
  call void @llvm.lifetime.end.p0(i64 8, ptr %12) #10
  call void @llvm.lifetime.end.p0(i64 8, ptr %11) #10
  call void @llvm.lifetime.end.p0(i64 10, ptr %10) #10
  call void @llvm.lifetime.end.p0(i64 10, ptr %9) #10
  call void @llvm.lifetime.end.p0(i64 4, ptr %8) #10
  call void @llvm.lifetime.end.p0(i64 8, ptr %7) #10
  call void @llvm.lifetime.end.p0(i64 8, ptr %6) #10
  %86 = load i32, ptr %3, align 4
  ret i32 %86
}