; Function Attrs: nounwind uwtable
define internal range(i32 -12, 1) i32 @asf_read_content_desc(ptr noundef %0, ptr readnone captures(none) %1) #1 {
  %3 = alloca [5 x i16], align 2
  %4 = alloca [5 x i16], align 2
  %5 = alloca ptr, align 8
  %6 = getelementptr inbounds nuw i8, ptr %0, i64 24
  %7 = load ptr, ptr %6, align 8, !tbaa !11
  %8 = getelementptr inbounds nuw i8, ptr %0, i64 32
  %9 = load ptr, ptr %8, align 8, !tbaa !26
  call void @llvm.lifetime.start.p0(i64 10, ptr nonnull %3) #12
  call void @llvm.lifetime.start.p0(i64 10, ptr nonnull %4) #12
  call void @llvm.memset.p0.i64(ptr noundef nonnull align 2 dereferenceable(10) %4, i8 0, i64 10, i1 false)
  call void @llvm.lifetime.start.p0(i64 8, ptr nonnull %5) #12
  %10 = tail call i64 @avio_rl64(ptr noundef %9) #12
  br label %12

.preheader:                                       ; preds = %12
  %11 = getelementptr inbounds nuw i8, ptr %0, i64 192
  br label %19

12:                                               ; preds = %2, %12
  %indvars.iv = phi i64 [ 0, %2 ], [ %indvars.iv.next, %12 ]
  %13 = tail call i32 @avio_rl16(ptr noundef %9) #12
  %14 = trunc i32 %13 to i16
  %15 = getelementptr inbounds nuw [5 x i16], ptr %3, i64 0, i64 %indvars.iv
  store i16 %14, ptr %15, align 2, !tbaa !144
  %16 = shl i16 %14, 1
  %17 = or disjoint i16 %16, 1
  %18 = getelementptr inbounds nuw [5 x i16], ptr %4, i64 0, i64 %indvars.iv
  store i16 %17, ptr %18, align 2, !tbaa !144
  %indvars.iv.next = add nuw nsw i64 %indvars.iv, 1
  %exitcond.not = icmp eq i64 %indvars.iv.next, 5
  br i1 %exitcond.not, label %.preheader, label %12, !llvm.loop !145

19:                                               ; preds = %.preheader, %asf_read_metadata.exit
  %indvars.iv25 = phi i64 [ 0, %.preheader ], [ %indvars.iv.next26, %asf_read_metadata.exit ]
  %20 = getelementptr inbounds nuw [5 x i16], ptr %4, i64 0, i64 %indvars.iv25
  %21 = load i16, ptr %20, align 2, !tbaa !144
  %22 = zext i16 %21 to i64
  %23 = call noalias ptr @av_malloc(i64 noundef %22) #12
  store ptr %23, ptr %5, align 8, !tbaa !146
  %.not = icmp eq ptr %23, null
  br i1 %.not, label %align_position.exit, label %24

24:                                               ; preds = %19
  %25 = getelementptr inbounds nuw [5 x ptr], ptr @asf_read_content_desc.titles, i64 0, i64 %indvars.iv25
  %26 = load ptr, ptr %25, align 8, !tbaa !146
  %27 = getelementptr inbounds nuw [5 x i16], ptr %3, i64 0, i64 %indvars.iv25
  %28 = load i16, ptr %27, align 2, !tbaa !144
  %29 = load ptr, ptr %8, align 8, !tbaa !26
  %30 = zext i16 %28 to i32
  %31 = zext i16 %21 to i32
  %32 = call i32 @avio_get_str16le(ptr noundef %29, i32 noundef %30, ptr noundef nonnull %23, i32 noundef %31) #12
  %33 = load i8, ptr %23, align 1, !tbaa !33
  %.not.i = icmp eq i8 %33, 0
  br i1 %.not.i, label %asf_read_metadata.exit, label %34

34:                                               ; preds = %24
  %35 = call i32 @av_dict_set(ptr noundef nonnull %11, ptr noundef %26, ptr noundef nonnull %23, i32 noundef 0) #12
  %36 = icmp slt i32 %35, 0
  br i1 %36, label %37, label %asf_read_metadata.exit

37:                                               ; preds = %34
  call void (ptr, i32, ptr, ...) @av_log(ptr noundef nonnull %0, i32 noundef 24, ptr noundef nonnull @.str.57) #12
  br label %asf_read_metadata.exit

asf_read_metadata.exit:                           ; preds = %24, %34, %37
  call void @av_freep(ptr noundef nonnull %5) #12
  %indvars.iv.next26 = add nuw nsw i64 %indvars.iv25, 1
  %exitcond28.not = icmp eq i64 %indvars.iv.next26, 5
  br i1 %exitcond28.not, label %38, label %19, !llvm.loop !147

38:                                               ; preds = %asf_read_metadata.exit
  %39 = getelementptr inbounds nuw i8, ptr %7, i64 80
  %40 = load i64, ptr %39, align 8, !tbaa !32
  %41 = sub nsw i64 9223372036854775807, %40
  %42 = icmp ult i64 %10, %41
  br i1 %42, label %43, label %align_position.exit

43:                                               ; preds = %38
  %44 = call i64 @avio_seek(ptr noundef %9, i64 noundef 0, i32 noundef 1) #12
  %45 = add i64 %40, %10
  %.not.i21 = icmp eq i64 %44, %45
  br i1 %.not.i21, label %align_position.exit, label %46

46:                                               ; preds = %43
  %47 = call i64 @avio_seek(ptr noundef %9, i64 noundef %45, i32 noundef 0) #12
  br label %align_position.exit

align_position.exit:                              ; preds = %19, %46, %43, %38
  %.0 = phi i32 [ 0, %38 ], [ 0, %43 ], [ 0, %46 ], [ -12, %19 ]
  call void @llvm.lifetime.end.p0(i64 8, ptr nonnull %5) #12
  call void @llvm.lifetime.end.p0(i64 10, ptr nonnull %4) #12
  call void @llvm.lifetime.end.p0(i64 10, ptr nonnull %3) #12
  ret i32 %.0
}